; ModuleID = '20/438.c'
source_filename = "20/438.c"
target datalayout = "e-m:e-p270:32:32-p271:32:32-p272:64:64-i64:64-f80:128-n8:16:32:64-S128"
target triple = "x86_64-pc-linux-gnu"

@.str = private unnamed_addr constant [5 x i8] c"%s%s\00", align 1
@.str.1 = private unnamed_addr constant [4 x i8] c"%s\0A\00", align 1

; Function Attrs: noinline nounwind uwtable
define dso_local void @main() #0 {
  %1 = alloca [15 x i8], align 1
  %2 = alloca [4 x i8], align 1
  br label %3

3:                                                ; preds = %8, %0
  %4 = getelementptr inbounds [15 x i8], [15 x i8]* %1, i64 0, i64 0
  %5 = getelementptr inbounds [4 x i8], [4 x i8]* %2, i64 0, i64 0
  %6 = call i32 (i8*, ...) @__isoc99_scanf(i8* getelementptr inbounds ([5 x i8], [5 x i8]* @.str, i64 0, i64 0), i8* %4, i8* %5)
  %7 = icmp ne i32 %6, -1
  br i1 %7, label %8, label %11

8:                                                ; preds = %3
  %9 = getelementptr inbounds [15 x i8], [15 x i8]* %1, i64 0, i64 0
  %10 = getelementptr inbounds [4 x i8], [4 x i8]* %2, i64 0, i64 0
  call void @f(i8* %9, i8* %10)
  br label %3

11:                                               ; preds = %3
  ret void
}

declare dso_local i32 @__isoc99_scanf(i8*, ...) #1

; Function Attrs: noinline nounwind uwtable
define dso_local void @f(i8* %0, i8* %1) #0 {
  %3 = alloca i8*, align 8
  %4 = alloca i8*, align 8
  %5 = alloca i32, align 4
  %6 = alloca i32, align 4
  %7 = alloca i32, align 4
  %8 = alloca i32, align 4
  %9 = alloca i8, align 1
  store i8* %0, i8** %3, align 8
  store i8* %1, i8** %4, align 8
  %10 = load i8*, i8** %3, align 8
  %11 = call i64 @strlen(i8* %10) #3
  %12 = trunc i64 %11 to i32
  store i32 %12, i32* %8, align 4
  %13 = load i8*, i8** %3, align 8
  %14 = getelementptr inbounds i8, i8* %13, i64 0
  %15 = load i8, i8* %14, align 1
  store i8 %15, i8* %9, align 1
  store i32 1, i32* %5, align 4
  br label %16

16:                                               ; preds = %37, %2
  %17 = load i32, i32* %5, align 4
  %18 = load i32, i32* %8, align 4
  %19 = icmp slt i32 %17, %18
  br i1 %19, label %20, label %40

20:                                               ; preds = %16
  %21 = load i8*, i8** %3, align 8
  %22 = load i32, i32* %5, align 4
  %23 = sext i32 %22 to i64
  %24 = getelementptr inbounds i8, i8* %21, i64 %23
  %25 = load i8, i8* %24, align 1
  %26 = sext i8 %25 to i32
  %27 = load i8, i8* %9, align 1
  %28 = sext i8 %27 to i32
  %29 = icmp sgt i32 %26, %28
  br i1 %29, label %30, label %36

30:                                               ; preds = %20
  %31 = load i8*, i8** %3, align 8
  %32 = load i32, i32* %5, align 4
  %33 = sext i32 %32 to i64
  %34 = getelementptr inbounds i8, i8* %31, i64 %33
  %35 = load i8, i8* %34, align 1
  store i8 %35, i8* %9, align 1
  br label %36

36:                                               ; preds = %30, %20
  br label %37

37:                                               ; preds = %36
  %38 = load i32, i32* %5, align 4
  %39 = add nsw i32 %38, 1
  store i32 %39, i32* %5, align 4
  br label %16

40:                                               ; preds = %16
  store i32 0, i32* %5, align 4
  br label %41

41:                                               ; preds = %57, %40
  %42 = load i32, i32* %5, align 4
  %43 = load i32, i32* %8, align 4
  %44 = icmp slt i32 %42, %43
  br i1 %44, label %45, label %60

45:                                               ; preds = %41
  %46 = load i8*, i8** %3, align 8
  %47 = load i32, i32* %5, align 4
  %48 = sext i32 %47 to i64
  %49 = getelementptr inbounds i8, i8* %46, i64 %48
  %50 = load i8, i8* %49, align 1
  %51 = sext i8 %50 to i32
  %52 = load i8, i8* %9, align 1
  %53 = sext i8 %52 to i32
  %54 = icmp eq i32 %51, %53
  br i1 %54, label %55, label %56

55:                                               ; preds = %45
  br label %60

56:                                               ; preds = %45
  br label %57

57:                                               ; preds = %56
  %58 = load i32, i32* %5, align 4
  %59 = add nsw i32 %58, 1
  store i32 %59, i32* %5, align 4
  br label %41

60:                                               ; preds = %55, %41
  %61 = load i32, i32* %8, align 4
  %62 = add nsw i32 %61, 3
  store i32 %62, i32* %6, align 4
  br label %63

63:                                               ; preds = %79, %60
  %64 = load i32, i32* %6, align 4
  %65 = load i32, i32* %5, align 4
  %66 = add nsw i32 %65, 3
  %67 = icmp sgt i32 %64, %66
  br i1 %67, label %68, label %82

68:                                               ; preds = %63
  %69 = load i8*, i8** %3, align 8
  %70 = load i32, i32* %6, align 4
  %71 = sub nsw i32 %70, 3
  %72 = sext i32 %71 to i64
  %73 = getelementptr inbounds i8, i8* %69, i64 %72
  %74 = load i8, i8* %73, align 1
  %75 = load i8*, i8** %3, align 8
  %76 = load i32, i32* %6, align 4
  %77 = sext i32 %76 to i64
  %78 = getelementptr inbounds i8, i8* %75, i64 %77
  store i8 %74, i8* %78, align 1
  br label %79

79:                                               ; preds = %68
  %80 = load i32, i32* %6, align 4
  %81 = add nsw i32 %80, -1
  store i32 %81, i32* %6, align 4
  br label %63

82:                                               ; preds = %63
  %83 = load i32, i32* %5, align 4
  %84 = add nsw i32 %83, 1
  store i32 %84, i32* %6, align 4
  store i32 0, i32* %7, align 4
  br label %85

85:                                               ; preds = %98, %82
  %86 = load i32, i32* %7, align 4
  %87 = icmp slt i32 %86, 3
  br i1 %87, label %88, label %103

88:                                               ; preds = %85
  %89 = load i8*, i8** %4, align 8
  %90 = load i32, i32* %7, align 4
  %91 = sext i32 %90 to i64
  %92 = getelementptr inbounds i8, i8* %89, i64 %91
  %93 = load i8, i8* %92, align 1
  %94 = load i8*, i8** %3, align 8
  %95 = load i32, i32* %6, align 4
  %96 = sext i32 %95 to i64
  %97 = getelementptr inbounds i8, i8* %94, i64 %96
  store i8 %93, i8* %97, align 1
  br label %98

98:                                               ; preds = %88
  %99 = load i32, i32* %6, align 4
  %100 = add nsw i32 %99, 1
  store i32 %100, i32* %6, align 4
  %101 = load i32, i32* %7, align 4
  %102 = add nsw i32 %101, 1
  store i32 %102, i32* %7, align 4
  br label %85

103:                                              ; preds = %85
  %104 = load i8*, i8** %3, align 8
  %105 = call i32 (i8*, ...) @printf(i8* getelementptr inbounds ([4 x i8], [4 x i8]* @.str.1, i64 0, i64 0), i8* %104)
  ret void
}

; Function Attrs: nounwind readonly
declare dso_local i64 @strlen(i8*) #2

declare dso_local i32 @printf(i8*, ...) #1


!llvm.module.flags = !{!0}
!llvm.ident = !{!1}

!0 = !{i32 1, !"wchar_size", i32 4}
!1 = !{!"clang version 10.0.0-4ubuntu1 "}
